; Function Attrs: nofree norecurse nosync nounwind memory(argmem: readwrite) uwtable
define hidden void @yuv422_abgr_std(i32 noundef %0, i32 noundef %1, ptr noundef readonly captures(none) %2, ptr noundef readonly captures(none) %3, ptr noundef readonly captures(none) %4, i32 noundef %5, i32 noundef %6, ptr noundef writeonly captures(none) %7, i32 noundef %8, i32 noundef %9) local_unnamed_addr #0 {
  %.not = icmp eq i32 %1, 0
  br i1 %.not, label %._crit_edge97, label %.lr.ph96

.lr.ph96:                                         ; preds = %10
  %11 = zext i32 %9 to i64
  %12 = getelementptr inbounds nuw [5 x %struct.YUV2RGBParam], ptr @YUV2RGB, i64 0, i64 %11
  %13 = add i32 %0, -1
  %.not99 = icmp eq i32 %13, 0
  %14 = getelementptr inbounds nuw i8, ptr %12, i64 4
  %15 = getelementptr inbounds nuw i8, ptr %12, i64 6
  %16 = getelementptr inbounds nuw i8, ptr %12, i64 8
  %17 = getelementptr inbounds nuw i8, ptr %12, i64 10
  %18 = getelementptr inbounds nuw i8, ptr %12, i64 2
  %19 = load i16, ptr %14, align 4
  %20 = zext i16 %19 to i32
  %21 = load i16, ptr %15, align 2
  %22 = zext i16 %21 to i32
  %23 = load i16, ptr %16, align 4
  %24 = zext i16 %23 to i32
  %25 = load i16, ptr %17, align 2
  %26 = zext i16 %25 to i32
  %27 = load i8, ptr %12, align 4
  %28 = zext i8 %27 to i32
  %29 = load i16, ptr %18, align 2
  %30 = zext i16 %29 to i32
  br i1 %.not99, label %.lr.ph96.split.split.us, label %.lr.ph96.split.us

.lr.ph96.split.us:                                ; preds = %.lr.ph96
  %31 = and i32 %0, -2
  %wide.trip.count = zext i32 %1 to i64
  %32 = icmp eq i32 %31, %13
  %33 = zext i16 %19 to i32
  %34 = zext i16 %21 to i32
  %35 = zext i16 %23 to i32
  %36 = zext i16 %25 to i32
  br label %.lr.ph.us

.lr.ph.us:                                        ; preds = %91, %.lr.ph96.split.us
  %indvars.iv = phi i64 [ %indvars.iv.next, %91 ], [ 0, %.lr.ph96.split.us ]
  %37 = trunc nuw i64 %indvars.iv to i32
  %38 = mul i32 %5, %37
  %39 = zext i32 %38 to i64
  %40 = getelementptr inbounds nuw i8, ptr %2, i64 %39
  %41 = mul i32 %6, %37
  %42 = zext i32 %41 to i64
  %43 = getelementptr inbounds nuw i8, ptr %3, i64 %42
  %44 = getelementptr inbounds nuw i8, ptr %4, i64 %42
  %45 = mul i32 %8, %37
  %46 = zext i32 %45 to i64
  %47 = getelementptr inbounds nuw i8, ptr %7, i64 %46
  br label %92

48:                                               ; preds = %._crit_edge.us
  %49 = load i8, ptr %170, align 1
  %50 = zext i8 %49 to i32
  %51 = add nsw i32 %50, -128
  %52 = load i8, ptr %171, align 1
  %53 = zext i8 %52 to i32
  %54 = add nsw i32 %53, -128
  %55 = mul nsw i32 %54, %33
  %56 = mul nsw i32 %51, %34
  %57 = mul nsw i32 %54, %35
  %58 = mul nsw i32 %51, %36
  %59 = load i8, ptr %169, align 1
  %60 = zext i8 %59 to i32
  %61 = sub nsw i32 %60, %28
  %62 = mul nsw i32 %61, %30
  %63 = add nsw i32 %62, 8192
  %64 = add nsw i32 %63, %58
  %65 = lshr i32 %64, 6
  %66 = and i32 %65, 511
  %67 = zext nneg i32 %66 to i64
  %68 = getelementptr inbounds nuw [512 x i8], ptr @clampU8.lut, i64 0, i64 %67
  %69 = load i8, ptr %68, align 1
  %70 = zext i8 %69 to i32
  %71 = shl nuw nsw i32 %70, 16
  %72 = add nsw i32 %63, %56
  %73 = add nsw i32 %72, %57
  %74 = lshr i32 %73, 6
  %75 = and i32 %74, 511
  %76 = zext nneg i32 %75 to i64
  %77 = getelementptr inbounds nuw [512 x i8], ptr @clampU8.lut, i64 0, i64 %76
  %78 = load i8, ptr %77, align 1
  %79 = zext i8 %78 to i32
  %80 = shl nuw nsw i32 %79, 8
  %81 = add nsw i32 %63, %55
  %82 = lshr i32 %81, 6
  %83 = and i32 %82, 511
  %84 = zext nneg i32 %83 to i64
  %85 = getelementptr inbounds nuw [512 x i8], ptr @clampU8.lut, i64 0, i64 %84
  %86 = load i8, ptr %85, align 1
  %87 = zext i8 %86 to i32
  %88 = or disjoint i32 %71, %80
  %89 = or disjoint i32 %88, %87
  %90 = or disjoint i32 %89, -16777216
  store i32 %90, ptr %168, align 4
  br label %91

91:                                               ; preds = %48, %._crit_edge.us
  %indvars.iv.next = add nuw nsw i64 %indvars.iv, 1
  %exitcond.not = icmp eq i64 %indvars.iv.next, %wide.trip.count
  br i1 %exitcond.not, label %._crit_edge97, label %.lr.ph.us, !llvm.loop !32

92:                                               ; preds = %.lr.ph.us, %92
  %.088.us = phi i32 [ 0, %.lr.ph.us ], [ %172, %92 ]
  %.07987.us = phi ptr [ %40, %.lr.ph.us ], [ %169, %92 ]
  %.08086.us = phi ptr [ %43, %.lr.ph.us ], [ %170, %92 ]
  %.08185.us = phi ptr [ %44, %.lr.ph.us ], [ %171, %92 ]
  %.08284.us = phi ptr [ %47, %.lr.ph.us ], [ %168, %92 ]
  %93 = load i8, ptr %.08086.us, align 1
  %94 = zext i8 %93 to i32
  %95 = add nsw i32 %94, -128
  %96 = load i8, ptr %.08185.us, align 1
  %97 = zext i8 %96 to i32
  %98 = add nsw i32 %97, -128
  %99 = mul nsw i32 %98, %20
  %100 = mul nsw i32 %95, %22
  %101 = mul nsw i32 %98, %24
  %102 = add nsw i32 %101, %100
  %103 = mul nsw i32 %95, %26
  %104 = load i8, ptr %.07987.us, align 1
  %105 = zext i8 %104 to i32
  %106 = sub nsw i32 %105, %28
  %107 = mul nsw i32 %106, %30
  %108 = add nsw i32 %107, 8192
  %109 = add nsw i32 %108, %103
  %110 = lshr i32 %109, 6
  %111 = and i32 %110, 511
  %112 = zext nneg i32 %111 to i64
  %113 = getelementptr inbounds nuw [512 x i8], ptr @clampU8.lut, i64 0, i64 %112
  %114 = load i8, ptr %113, align 1
  %115 = zext i8 %114 to i32
  %116 = shl nuw nsw i32 %115, 16
  %117 = add nsw i32 %108, %102
  %118 = lshr i32 %117, 6
  %119 = and i32 %118, 511
  %120 = zext nneg i32 %119 to i64
  %121 = getelementptr inbounds nuw [512 x i8], ptr @clampU8.lut, i64 0, i64 %120
  %122 = load i8, ptr %121, align 1
  %123 = zext i8 %122 to i32
  %124 = shl nuw nsw i32 %123, 8
  %125 = add nsw i32 %108, %99
  %126 = lshr i32 %125, 6
  %127 = and i32 %126, 511
  %128 = zext nneg i32 %127 to i64
  %129 = getelementptr inbounds nuw [512 x i8], ptr @clampU8.lut, i64 0, i64 %128
  %130 = load i8, ptr %129, align 1
  %131 = zext i8 %130 to i32
  %132 = or disjoint i32 %116, %124
  %133 = or disjoint i32 %132, %131
  %134 = or disjoint i32 %133, -16777216
  store i32 %134, ptr %.08284.us, align 4
  %135 = getelementptr inbounds nuw i8, ptr %.08284.us, i64 4
  %136 = getelementptr inbounds nuw i8, ptr %.07987.us, i64 2
  %137 = load i8, ptr %136, align 1
  %138 = zext i8 %137 to i32
  %139 = sub nsw i32 %138, %28
  %140 = mul nsw i32 %139, %30
  %141 = add nsw i32 %140, 8192
  %142 = add nsw i32 %141, %103
  %143 = lshr i32 %142, 6
  %144 = and i32 %143, 511
  %145 = zext nneg i32 %144 to i64
  %146 = getelementptr inbounds nuw [512 x i8], ptr @clampU8.lut, i64 0, i64 %145
  %147 = load i8, ptr %146, align 1
  %148 = zext i8 %147 to i32
  %149 = shl nuw nsw i32 %148, 16
  %150 = add nsw i32 %141, %102
  %151 = lshr i32 %150, 6
  %152 = and i32 %151, 511
  %153 = zext nneg i32 %152 to i64
  %154 = getelementptr inbounds nuw [512 x i8], ptr @clampU8.lut, i64 0, i64 %153
  %155 = load i8, ptr %154, align 1
  %156 = zext i8 %155 to i32
  %157 = shl nuw nsw i32 %156, 8
  %158 = add nsw i32 %141, %99
  %159 = lshr i32 %158, 6
  %160 = and i32 %159, 511
  %161 = zext nneg i32 %160 to i64
  %162 = getelementptr inbounds nuw [512 x i8], ptr @clampU8.lut, i64 0, i64 %161
  %163 = load i8, ptr %162, align 1
  %164 = zext i8 %163 to i32
  %165 = or disjoint i32 %149, %157
  %166 = or disjoint i32 %165, %164
  %167 = or disjoint i32 %166, -16777216
  store i32 %167, ptr %135, align 4
  %168 = getelementptr inbounds nuw i8, ptr %.08284.us, i64 8
  %169 = getelementptr inbounds nuw i8, ptr %.07987.us, i64 4
  %170 = getelementptr inbounds nuw i8, ptr %.08086.us, i64 4
  %171 = getelementptr inbounds nuw i8, ptr %.08185.us, i64 4
  %172 = add nuw i32 %.088.us, 2
  %173 = icmp ult i32 %172, %13
  br i1 %173, label %92, label %._crit_edge.us, !llvm.loop !33

._crit_edge.us:                                   ; preds = %92
  br i1 %32, label %48, label %91

.lr.ph96.split.split.us:                          ; preds = %.lr.ph96
  %wide.trip.count109 = zext i32 %1 to i64
  br label %174

174:                                              ; preds = %174, %.lr.ph96.split.split.us
  %indvars.iv106 = phi i64 [ %indvars.iv.next107, %174 ], [ 0, %.lr.ph96.split.split.us ]
  %175 = trunc nuw i64 %indvars.iv106 to i32
  %176 = mul i32 %5, %175
  %177 = zext i32 %176 to i64
  %178 = getelementptr inbounds nuw i8, ptr %2, i64 %177
  %179 = mul i32 %6, %175
  %180 = zext i32 %179 to i64
  %181 = getelementptr inbounds nuw i8, ptr %3, i64 %180
  %182 = getelementptr inbounds nuw i8, ptr %4, i64 %180
  %183 = mul i32 %8, %175
  %184 = zext i32 %183 to i64
  %185 = getelementptr inbounds nuw i8, ptr %7, i64 %184
  %186 = load i8, ptr %181, align 1
  %187 = zext i8 %186 to i32
  %188 = add nsw i32 %187, -128
  %189 = load i8, ptr %182, align 1
  %190 = zext i8 %189 to i32
  %191 = add nsw i32 %190, -128
  %192 = mul nsw i32 %191, %20
  %193 = mul nsw i32 %188, %22
  %194 = mul nsw i32 %191, %24
  %195 = mul nsw i32 %188, %26
  %196 = load i8, ptr %178, align 1
  %197 = zext i8 %196 to i32
  %198 = sub nsw i32 %197, %28
  %199 = mul nsw i32 %198, %30
  %200 = add nsw i32 %199, 8192
  %201 = add nsw i32 %200, %195
  %202 = lshr i32 %201, 6
  %203 = and i32 %202, 511
  %204 = zext nneg i32 %203 to i64
  %205 = getelementptr inbounds nuw [512 x i8], ptr @clampU8.lut, i64 0, i64 %204
  %206 = load i8, ptr %205, align 1
  %207 = zext i8 %206 to i32
  %208 = shl nuw nsw i32 %207, 16
  %209 = add nsw i32 %200, %193
  %210 = add nsw i32 %209, %194
  %211 = lshr i32 %210, 6
  %212 = and i32 %211, 511
  %213 = zext nneg i32 %212 to i64
  %214 = getelementptr inbounds nuw [512 x i8], ptr @clampU8.lut, i64 0, i64 %213
  %215 = load i8, ptr %214, align 1
  %216 = zext i8 %215 to i32
  %217 = shl nuw nsw i32 %216, 8
  %218 = add nsw i32 %200, %192
  %219 = lshr i32 %218, 6
  %220 = and i32 %219, 511
  %221 = zext nneg i32 %220 to i64
  %222 = getelementptr inbounds nuw [512 x i8], ptr @clampU8.lut, i64 0, i64 %221
  %223 = load i8, ptr %222, align 1
  %224 = zext i8 %223 to i32
  %225 = or disjoint i32 %208, %217
  %226 = or disjoint i32 %225, %224
  %227 = or disjoint i32 %226, -16777216
  store i32 %227, ptr %185, align 4
  %indvars.iv.next107 = add nuw nsw i64 %indvars.iv106, 1
  %exitcond110.not = icmp eq i64 %indvars.iv.next107, %wide.trip.count109
  br i1 %exitcond110.not, label %._crit_edge97, label %174, !llvm.loop !32

._crit_edge97:                                    ; preds = %91, %174, %10
  ret void
}